target datalayout = "e-m:e-p270:32:32-p271:32:32-p272:64:64-i64:64-i128:128-f80:128-n8:16:32:64-S128"
target triple = "x86_64-pc-linux-gnu"

%struct.client = type { i64, i64, ptr, i8, i8, i8, i8, i32, ptr, ptr, ptr, ptr, ptr, i64, i64, i32, ptr, i32, i32, ptr, i64, ptr, ptr, ptr, ptr, ptr, i32, i32, i64, ptr, i64, ptr, i64, i64, i64, i32, ptr, i64, i64, i32, i32, i32, i32, i64, i64, ptr, i64, i64, i64, i64, i64, i64, i64, i64, [41 x i8], i32, ptr, i32, i32, i64, %struct.multiState, %struct.blockingState, i64, ptr, ptr, ptr, ptr, ptr, ptr, ptr, ptr, ptr, ptr, ptr, ptr, ptr, ptr, i64, ptr, i64, i32, ptr, ptr, ptr, i64, %struct.listNode, i64, i64, i32, i64, ptr }
%struct.multiState = type { ptr, i32, i32, i32, i64, i32 }
%struct.blockingState = type { i32, i64, i32, ptr, i32, i32, i64, ptr, ptr, i64 }
%struct.listNode = type { ptr, ptr, ptr }
%struct.multiCmd = type { ptr, i32, i32, ptr }

; Function Attrs: nounwind uwtable
define dso_local void @queueMultiCommand(ptr noundef %0, i64 noundef %1) #0 {
  %3 = alloca ptr, align 8
  %4 = alloca i64, align 8
  %5 = alloca ptr, align 8
  %6 = alloca i32, align 4
  store ptr %0, ptr %3, align 8, !tbaa !5
  store i64 %1, ptr %4, align 8, !tbaa !44
  call void @llvm.lifetime.start.p0(i64 8, ptr %5) #8
  %7 = load ptr, ptr %3, align 8, !tbaa !5
  %8 = getelementptr inbounds nuw %struct.client, ptr %7, i32 0, i32 1
  %9 = load i64, ptr %8, align 8, !tbaa !45
  %10 = and i64 %9, 4128
  %11 = icmp ne i64 %10, 0
  br i1 %11, label %12, label %13

12:                                               ; preds = %2
  store i32 1, ptr %6, align 4
  br label %144

13:                                               ; preds = %2
  %14 = load ptr, ptr %3, align 8, !tbaa !5
  %15 = getelementptr inbounds nuw %struct.client, ptr %14, i32 0, i32 60
  %16 = getelementptr inbounds nuw %struct.multiState, ptr %15, i32 0, i32 1
  %17 = load i32, ptr %16, align 8, !tbaa !30
  %18 = icmp eq i32 %17, 0
  br i1 %18, label %19, label %27

19:                                               ; preds = %13
  %20 = call noalias ptr @zmalloc(i64 noundef 48) #9
  %21 = load ptr, ptr %3, align 8, !tbaa !5
  %22 = getelementptr inbounds nuw %struct.client, ptr %21, i32 0, i32 60
  %23 = getelementptr inbounds nuw %struct.multiState, ptr %22, i32 0, i32 0
  store ptr %20, ptr %23, align 8, !tbaa !10
  %24 = load ptr, ptr %3, align 8, !tbaa !5
  %25 = getelementptr inbounds nuw %struct.client, ptr %24, i32 0, i32 60
  %26 = getelementptr inbounds nuw %struct.multiState, ptr %25, i32 0, i32 5
  store i32 2, ptr %26, align 8, !tbaa !34
  br label %27

27:                                               ; preds = %19, %13
  %28 = load ptr, ptr %3, align 8, !tbaa !5
  %29 = getelementptr inbounds nuw %struct.client, ptr %28, i32 0, i32 60
  %30 = getelementptr inbounds nuw %struct.multiState, ptr %29, i32 0, i32 1
  %31 = load i32, ptr %30, align 8, !tbaa !30
  %32 = load ptr, ptr %3, align 8, !tbaa !5
  %33 = getelementptr inbounds nuw %struct.client, ptr %32, i32 0, i32 60
  %34 = getelementptr inbounds nuw %struct.multiState, ptr %33, i32 0, i32 5
  %35 = load i32, ptr %34, align 8, !tbaa !34
  %36 = icmp eq i32 %31, %35
  br i1 %36, label %37, label %69

37:                                               ; preds = %27
  %38 = load ptr, ptr %3, align 8, !tbaa !5
  %39 = getelementptr inbounds nuw %struct.client, ptr %38, i32 0, i32 60
  %40 = getelementptr inbounds nuw %struct.multiState, ptr %39, i32 0, i32 5
  %41 = load i32, ptr %40, align 8, !tbaa !34
  %42 = icmp slt i32 %41, 1073741823
  br i1 %42, label %43, label %49

43:                                               ; preds = %37
  %44 = load ptr, ptr %3, align 8, !tbaa !5
  %45 = getelementptr inbounds nuw %struct.client, ptr %44, i32 0, i32 60
  %46 = getelementptr inbounds nuw %struct.multiState, ptr %45, i32 0, i32 5
  %47 = load i32, ptr %46, align 8, !tbaa !34
  %48 = mul nsw i32 %47, 2
  br label %50

49:                                               ; preds = %37
  br label %50

50:                                               ; preds = %49, %43
  %51 = phi i32 [ %48, %43 ], [ 2147483647, %49 ]
  %52 = load ptr, ptr %3, align 8, !tbaa !5
  %53 = getelementptr inbounds nuw %struct.client, ptr %52, i32 0, i32 60
  %54 = getelementptr inbounds nuw %struct.multiState, ptr %53, i32 0, i32 5
  store i32 %51, ptr %54, align 8, !tbaa !34
  %55 = load ptr, ptr %3, align 8, !tbaa !5
  %56 = getelementptr inbounds nuw %struct.client, ptr %55, i32 0, i32 60
  %57 = getelementptr inbounds nuw %struct.multiState, ptr %56, i32 0, i32 0
  %58 = load ptr, ptr %57, align 8, !tbaa !10
  %59 = load ptr, ptr %3, align 8, !tbaa !5
  %60 = getelementptr inbounds nuw %struct.client, ptr %59, i32 0, i32 60
  %61 = getelementptr inbounds nuw %struct.multiState, ptr %60, i32 0, i32 5
  %62 = load i32, ptr %61, align 8, !tbaa !34
  %63 = sext i32 %62 to i64
  %64 = mul i64 24, %63
  %65 = call ptr @zrealloc(ptr noundef %58, i64 noundef %64) #10
  %66 = load ptr, ptr %3, align 8, !tbaa !5
  %67 = getelementptr inbounds nuw %struct.client, ptr %66, i32 0, i32 60
  %68 = getelementptr inbounds nuw %struct.multiState, ptr %67, i32 0, i32 0
  store ptr %65, ptr %68, align 8, !tbaa !10
  br label %69

69:                                               ; preds = %50, %27
  %70 = load ptr, ptr %3, align 8, !tbaa !5
  %71 = getelementptr inbounds nuw %struct.client, ptr %70, i32 0, i32 60
  %72 = getelementptr inbounds nuw %struct.multiState, ptr %71, i32 0, i32 0
  %73 = load ptr, ptr %72, align 8, !tbaa !10
  %74 = load ptr, ptr %3, align 8, !tbaa !5
  %75 = getelementptr inbounds nuw %struct.client, ptr %74, i32 0, i32 60
  %76 = getelementptr inbounds nuw %struct.multiState, ptr %75, i32 0, i32 1
  %77 = load i32, ptr %76, align 8, !tbaa !30
  %78 = sext i32 %77 to i64
  %79 = getelementptr inbounds %struct.multiCmd, ptr %73, i64 %78
  store ptr %79, ptr %5, align 8, !tbaa !36
  %80 = load ptr, ptr %3, align 8, !tbaa !5
  %81 = getelementptr inbounds nuw %struct.client, ptr %80, i32 0, i32 21
  %82 = load ptr, ptr %81, align 8, !tbaa !46
  %83 = load ptr, ptr %5, align 8, !tbaa !36
  %84 = getelementptr inbounds nuw %struct.multiCmd, ptr %83, i32 0, i32 3
  store ptr %82, ptr %84, align 8, !tbaa !47
  %85 = load ptr, ptr %3, align 8, !tbaa !5
  %86 = getelementptr inbounds nuw %struct.client, ptr %85, i32 0, i32 15
  %87 = load i32, ptr %86, align 8, !tbaa !48
  %88 = load ptr, ptr %5, align 8, !tbaa !36
  %89 = getelementptr inbounds nuw %struct.multiCmd, ptr %88, i32 0, i32 2
  store i32 %87, ptr %89, align 4, !tbaa !37
  %90 = load ptr, ptr %3, align 8, !tbaa !5
  %91 = getelementptr inbounds nuw %struct.client, ptr %90, i32 0, i32 16
  %92 = load ptr, ptr %91, align 8, !tbaa !49
  %93 = load ptr, ptr %5, align 8, !tbaa !36
  %94 = getelementptr inbounds nuw %struct.multiCmd, ptr %93, i32 0, i32 0
  store ptr %92, ptr %94, align 8, !tbaa !39
  %95 = load ptr, ptr %3, align 8, !tbaa !5
  %96 = getelementptr inbounds nuw %struct.client, ptr %95, i32 0, i32 17
  %97 = load i32, ptr %96, align 8, !tbaa !50
  %98 = load ptr, ptr %5, align 8, !tbaa !36
  %99 = getelementptr inbounds nuw %struct.multiCmd, ptr %98, i32 0, i32 1
  store i32 %97, ptr %99, align 8, !tbaa !51
  %100 = load ptr, ptr %3, align 8, !tbaa !5
  %101 = getelementptr inbounds nuw %struct.client, ptr %100, i32 0, i32 60
  %102 = getelementptr inbounds nuw %struct.multiState, ptr %101, i32 0, i32 1
  %103 = load i32, ptr %102, align 8, !tbaa !30
  %104 = add nsw i32 %103, 1
  store i32 %104, ptr %102, align 8, !tbaa !30
  %105 = load i64, ptr %4, align 8, !tbaa !44
  %106 = load ptr, ptr %3, align 8, !tbaa !5
  %107 = getelementptr inbounds nuw %struct.client, ptr %106, i32 0, i32 60
  %108 = getelementptr inbounds nuw %struct.multiState, ptr %107, i32 0, i32 2
  %109 = load i32, ptr %108, align 4, !tbaa !31
  %110 = sext i32 %109 to i64
  %111 = or i64 %110, %105
  %112 = trunc i64 %111 to i32
  store i32 %112, ptr %108, align 4, !tbaa !31
  %113 = load i64, ptr %4, align 8, !tbaa !44
  %114 = xor i64 %113, -1
  %115 = load ptr, ptr %3, align 8, !tbaa !5
  %116 = getelementptr inbounds nuw %struct.client, ptr %115, i32 0, i32 60
  %117 = getelementptr inbounds nuw %struct.multiState, ptr %116, i32 0, i32 3
  %118 = load i32, ptr %117, align 8, !tbaa !32
  %119 = sext i32 %118 to i64
  %120 = or i64 %119, %114
  %121 = trunc i64 %120 to i32
  store i32 %121, ptr %117, align 8, !tbaa !32
  %122 = load ptr, ptr %3, align 8, !tbaa !5
  %123 = getelementptr inbounds nuw %struct.client, ptr %122, i32 0, i32 20
  %124 = load i64, ptr %123, align 8, !tbaa !52
  %125 = load ptr, ptr %3, align 8, !tbaa !5
  %126 = getelementptr inbounds nuw %struct.client, ptr %125, i32 0, i32 15
  %127 = load i32, ptr %126, align 8, !tbaa !48
  %128 = sext i32 %127 to i64
  %129 = mul i64 8, %128
  %130 = add i64 %124, %129
  %131 = load ptr, ptr %3, align 8, !tbaa !5
  %132 = getelementptr inbounds nuw %struct.client, ptr %131, i32 0, i32 60
  %133 = getelementptr inbounds nuw %struct.multiState, ptr %132, i32 0, i32 4
  %134 = load i64, ptr %133, align 8, !tbaa !33
  %135 = add i64 %134, %130
  store i64 %135, ptr %133, align 8, !tbaa !33
  %136 = load ptr, ptr %3, align 8, !tbaa !5
  %137 = getelementptr inbounds nuw %struct.client, ptr %136, i32 0, i32 16
  store ptr null, ptr %137, align 8, !tbaa !49
  %138 = load ptr, ptr %3, align 8, !tbaa !5
  %139 = getelementptr inbounds nuw %struct.client, ptr %138, i32 0, i32 15
  store i32 0, ptr %139, align 8, !tbaa !48
  %140 = load ptr, ptr %3, align 8, !tbaa !5
  %141 = getelementptr inbounds nuw %struct.client, ptr %140, i32 0, i32 20
  store i64 0, ptr %141, align 8, !tbaa !52
  %142 = load ptr, ptr %3, align 8, !tbaa !5
  %143 = getelementptr inbounds nuw %struct.client, ptr %142, i32 0, i32 17
  store i32 0, ptr %143, align 8, !tbaa !50
  store i32 0, ptr %6, align 4
  br label %144

144:                                              ; preds = %69, %12
  call void @llvm.lifetime.end.p0(i64 8, ptr %5) #8
  %145 = load i32, ptr %6, align 4
  switch i32 %145, label %147 [
    i32 0, label %146
    i32 1, label %146
  ]

146:                                              ; preds = %144, %144
  ret void

147:                                              ; preds = %144
  unreachable
}