; Function Attrs: nounwind uwtable
define dso_local void @queueMultiCommand(ptr noundef captures(none) %0, i64 noundef %1) local_unnamed_addr #1 {
  %3 = getelementptr inbounds nuw i8, ptr %0, i64 8
  %4 = load i64, ptr %3, align 8, !tbaa !38
  %5 = and i64 %4, 4128
  %.not = icmp eq i64 %5, 0
  br i1 %.not, label %6, label %58

6:                                                ; preds = %2
  %7 = getelementptr inbounds nuw i8, ptr %0, i64 440
  %8 = getelementptr inbounds nuw i8, ptr %0, i64 448
  %9 = load i32, ptr %8, align 8, !tbaa !29
  %10 = icmp eq i32 %9, 0
  br i1 %10, label %11, label %._crit_edge

._crit_edge:                                      ; preds = %6
  %.phi.trans.insert = getelementptr inbounds nuw i8, ptr %0, i64 472
  %.pre33 = load i32, ptr %.phi.trans.insert, align 8, !tbaa !28
  %.pre34.pre = load ptr, ptr %7, align 8, !tbaa !30
  br label %14

11:                                               ; preds = %6
  %12 = tail call noalias dereferenceable_or_null(48) ptr @zmalloc(i64 noundef 48) #11
  store ptr %12, ptr %7, align 8, !tbaa !30
  %13 = getelementptr inbounds nuw i8, ptr %0, i64 472
  store i32 2, ptr %13, align 8, !tbaa !28
  %.pre = load i32, ptr %8, align 8, !tbaa !29
  br label %14

14:                                               ; preds = %._crit_edge, %11
  %.pre34 = phi ptr [ %12, %11 ], [ %.pre34.pre, %._crit_edge ]
  %15 = phi i32 [ 2, %11 ], [ %.pre33, %._crit_edge ]
  %16 = phi i32 [ %.pre, %11 ], [ %9, %._crit_edge ]
  %17 = icmp eq i32 %16, %15
  br i1 %17, label %18, label %25

18:                                               ; preds = %14
  %19 = getelementptr inbounds nuw i8, ptr %0, i64 472
  %20 = icmp slt i32 %15, 1073741823
  %21 = shl nsw i32 %15, 1
  %spec.select = select i1 %20, i32 %21, i32 2147483647
  store i32 %spec.select, ptr %19, align 8, !tbaa !28
  %22 = sext i32 %spec.select to i64
  %23 = mul nsw i64 %22, 24
  %24 = tail call ptr @zrealloc(ptr noundef %.pre34, i64 noundef %23) #12
  store ptr %24, ptr %7, align 8, !tbaa !30
  %.pre35 = load i32, ptr %8, align 8, !tbaa !29
  br label %25

25:                                               ; preds = %18, %14
  %26 = phi i32 [ %.pre35, %18 ], [ %16, %14 ]
  %27 = phi ptr [ %24, %18 ], [ %.pre34, %14 ]
  %28 = sext i32 %26 to i64
  %29 = getelementptr inbounds %struct.multiCmd, ptr %27, i64 %28
  %30 = getelementptr inbounds nuw i8, ptr %0, i64 128
  %31 = load ptr, ptr %30, align 8, !tbaa !39
  %32 = getelementptr inbounds nuw i8, ptr %29, i64 16
  store ptr %31, ptr %32, align 8, !tbaa !40
  %33 = getelementptr inbounds nuw i8, ptr %0, i64 88
  %34 = load i32, ptr %33, align 8, !tbaa !41
  %35 = getelementptr inbounds nuw i8, ptr %29, i64 12
  store i32 %34, ptr %35, align 4, !tbaa !31
  %36 = getelementptr inbounds nuw i8, ptr %0, i64 96
  %37 = load ptr, ptr %36, align 8, !tbaa !42
  store ptr %37, ptr %29, align 8, !tbaa !33
  %38 = getelementptr inbounds nuw i8, ptr %0, i64 104
  %39 = load i32, ptr %38, align 8, !tbaa !43
  %40 = getelementptr inbounds nuw i8, ptr %29, i64 8
  store i32 %39, ptr %40, align 8, !tbaa !44
  %41 = add nsw i32 %26, 1
  store i32 %41, ptr %8, align 8, !tbaa !29
  %42 = getelementptr inbounds nuw i8, ptr %0, i64 452
  %43 = load i32, ptr %42, align 4, !tbaa !45
  %44 = trunc i64 %1 to i32
  %45 = or i32 %43, %44
  store i32 %45, ptr %42, align 4, !tbaa !45
  %46 = getelementptr inbounds nuw i8, ptr %0, i64 456
  %47 = load i32, ptr %46, align 8, !tbaa !46
  %48 = xor i32 %44, -1
  %49 = or i32 %47, %48
  store i32 %49, ptr %46, align 8, !tbaa !46
  %50 = getelementptr inbounds nuw i8, ptr %0, i64 120
  %51 = load i64, ptr %50, align 8, !tbaa !47
  %52 = sext i32 %34 to i64
  %53 = shl nsw i64 %52, 3
  %54 = add i64 %51, %53
  %55 = getelementptr inbounds nuw i8, ptr %0, i64 464
  %56 = load i64, ptr %55, align 8, !tbaa !5
  %57 = add i64 %54, %56
  store i64 %57, ptr %55, align 8, !tbaa !5
  store ptr null, ptr %36, align 8, !tbaa !42
  store i32 0, ptr %33, align 8, !tbaa !41
  store i64 0, ptr %50, align 8, !tbaa !47
  store i32 0, ptr %38, align 8, !tbaa !43
  br label %58

58:                                               ; preds = %2, %25
  ret void
}